target datalayout = "e-m:e-p270:32:32-p271:32:32-p272:64:64-i64:64-i128:128-f80:128-n8:16:32:64-S128"
target triple = "x86_64-pc-linux-gnu"

%"class.icu_77::UObject" = type { ptr }
%"class.icu_77::StringTrieBuilder::Node" = type { %"class.icu_77::UObject", i32, i32 }
%"class.icu_77::StringTrieBuilder::BranchHeadNode" = type { %"class.icu_77::StringTrieBuilder::ValueNode", i32, ptr }
%"class.icu_77::StringTrieBuilder::ValueNode" = type { %"class.icu_77::StringTrieBuilder::Node", i8, i32 }

; Function Attrs: mustprogress uwtable
define void @_ZN6icu_7717StringTrieBuilder14BranchHeadNode5writeERS0_(ptr noundef nonnull align 8 dereferenceable(40) %0, ptr noundef nonnull align 8 dereferenceable(16) %1) unnamed_addr #2 align 2 {
  %3 = alloca ptr, align 8
  %4 = alloca ptr, align 8
  store ptr %0, ptr %3, align 8, !tbaa !43
  store ptr %1, ptr %4, align 8, !tbaa !3
  %5 = load ptr, ptr %3, align 8
  %6 = getelementptr inbounds nuw %"class.icu_77::StringTrieBuilder::BranchHeadNode", ptr %5, i32 0, i32 2
  %7 = load ptr, ptr %6, align 8, !tbaa !49
  %8 = load ptr, ptr %4, align 8, !tbaa !3
  %9 = load ptr, ptr %7, align 8, !tbaa !8
  %10 = getelementptr inbounds ptr, ptr %9, i64 5
  %11 = load ptr, ptr %10, align 8
  call void %11(ptr noundef nonnull align 8 dereferenceable(16) %7, ptr noundef nonnull align 8 dereferenceable(16) %8)
  %12 = getelementptr inbounds nuw %"class.icu_77::StringTrieBuilder::BranchHeadNode", ptr %5, i32 0, i32 1
  %13 = load i32, ptr %12, align 8, !tbaa !45
  %14 = load ptr, ptr %4, align 8, !tbaa !3
  %15 = load ptr, ptr %14, align 8, !tbaa !8
  %16 = getelementptr inbounds ptr, ptr %15, i64 12
  %17 = load ptr, ptr %16, align 8
  %18 = call noundef i32 %17(ptr noundef nonnull align 8 dereferenceable(16) %14)
  %19 = icmp sle i32 %13, %18
  br i1 %19, label %20, label %34

20:                                               ; preds = %2
  %21 = load ptr, ptr %4, align 8, !tbaa !3
  %22 = getelementptr inbounds nuw %"class.icu_77::StringTrieBuilder::ValueNode", ptr %5, i32 0, i32 1
  %23 = load i8, ptr %22, align 8, !tbaa !52
  %24 = getelementptr inbounds nuw %"class.icu_77::StringTrieBuilder::ValueNode", ptr %5, i32 0, i32 2
  %25 = load i32, ptr %24, align 4, !tbaa !53
  %26 = getelementptr inbounds nuw %"class.icu_77::StringTrieBuilder::BranchHeadNode", ptr %5, i32 0, i32 1
  %27 = load i32, ptr %26, align 8, !tbaa !45
  %28 = sub nsw i32 %27, 1
  %29 = load ptr, ptr %21, align 8, !tbaa !8
  %30 = getelementptr inbounds ptr, ptr %29, i64 18
  %31 = load ptr, ptr %30, align 8
  %32 = call noundef i32 %31(ptr noundef nonnull align 8 dereferenceable(16) %21, i8 noundef signext %23, i32 noundef %25, i32 noundef %28)
  %33 = getelementptr inbounds nuw %"class.icu_77::StringTrieBuilder::Node", ptr %5, i32 0, i32 2
  store i32 %32, ptr %33, align 4, !tbaa !77
  br label %53

34:                                               ; preds = %2
  %35 = load ptr, ptr %4, align 8, !tbaa !3
  %36 = getelementptr inbounds nuw %"class.icu_77::StringTrieBuilder::BranchHeadNode", ptr %5, i32 0, i32 1
  %37 = load i32, ptr %36, align 8, !tbaa !45
  %38 = sub nsw i32 %37, 1
  %39 = load ptr, ptr %35, align 8, !tbaa !8
  %40 = getelementptr inbounds ptr, ptr %39, i64 15
  %41 = load ptr, ptr %40, align 8
  %42 = call noundef i32 %41(ptr noundef nonnull align 8 dereferenceable(16) %35, i32 noundef %38)
  %43 = load ptr, ptr %4, align 8, !tbaa !3
  %44 = getelementptr inbounds nuw %"class.icu_77::StringTrieBuilder::ValueNode", ptr %5, i32 0, i32 1
  %45 = load i8, ptr %44, align 8, !tbaa !52
  %46 = getelementptr inbounds nuw %"class.icu_77::StringTrieBuilder::ValueNode", ptr %5, i32 0, i32 2
  %47 = load i32, ptr %46, align 4, !tbaa !53
  %48 = load ptr, ptr %43, align 8, !tbaa !8
  %49 = getelementptr inbounds ptr, ptr %48, i64 18
  %50 = load ptr, ptr %49, align 8
  %51 = call noundef i32 %50(ptr noundef nonnull align 8 dereferenceable(16) %43, i8 noundef signext %45, i32 noundef %47, i32 noundef 0)
  %52 = getelementptr inbounds nuw %"class.icu_77::StringTrieBuilder::Node", ptr %5, i32 0, i32 2
  store i32 %51, ptr %52, align 4, !tbaa !77
  br label %53

53:                                               ; preds = %34, %20
  ret void
}