; Function Attrs: mustprogress uwtable
define void @_ZN6icu_7717StringTrieBuilder14BranchHeadNode5writeERS0_(ptr noundef nonnull align 8 captures(none) dereferenceable(40) initializes((12, 16)) %0, ptr noundef nonnull align 8 dereferenceable(16) %1) unnamed_addr #2 align 2 {
  %3 = getelementptr inbounds nuw i8, ptr %0, i64 32
  %4 = load ptr, ptr %3, align 8, !tbaa !28
  %5 = load ptr, ptr %4, align 8, !tbaa !3
  %6 = getelementptr inbounds nuw i8, ptr %5, i64 40
  %7 = load ptr, ptr %6, align 8
  tail call void %7(ptr noundef nonnull align 8 dereferenceable(16) %4, ptr noundef nonnull align 8 dereferenceable(16) %1)
  %8 = getelementptr inbounds nuw i8, ptr %0, i64 24
  %9 = load i32, ptr %8, align 8, !tbaa !25
  %10 = load ptr, ptr %1, align 8, !tbaa !3
  %11 = getelementptr inbounds nuw i8, ptr %10, i64 96
  %12 = load ptr, ptr %11, align 8
  %13 = tail call noundef i32 %12(ptr noundef nonnull align 8 dereferenceable(16) %1)
  %.not = icmp sgt i32 %9, %13
  br i1 %.not, label %25, label %14

14:                                               ; preds = %2
  %15 = getelementptr inbounds nuw i8, ptr %0, i64 16
  %16 = load i8, ptr %15, align 8, !tbaa !22
  %17 = getelementptr inbounds nuw i8, ptr %0, i64 20
  %18 = load i32, ptr %17, align 4, !tbaa !24
  %19 = load i32, ptr %8, align 8, !tbaa !25
  %20 = add nsw i32 %19, -1
  %21 = load ptr, ptr %1, align 8, !tbaa !3
  %22 = getelementptr inbounds nuw i8, ptr %21, i64 144
  %23 = load ptr, ptr %22, align 8
  %24 = tail call noundef i32 %23(ptr noundef nonnull align 8 dereferenceable(16) %1, i8 noundef signext %16, i32 noundef %18, i32 noundef %20)
  br label %40

25:                                               ; preds = %2
  %26 = load i32, ptr %8, align 8, !tbaa !25
  %27 = add nsw i32 %26, -1
  %28 = load ptr, ptr %1, align 8, !tbaa !3
  %29 = getelementptr inbounds nuw i8, ptr %28, i64 120
  %30 = load ptr, ptr %29, align 8
  %31 = tail call noundef i32 %30(ptr noundef nonnull align 8 dereferenceable(16) %1, i32 noundef %27)
  %32 = getelementptr inbounds nuw i8, ptr %0, i64 16
  %33 = load i8, ptr %32, align 8, !tbaa !22
  %34 = getelementptr inbounds nuw i8, ptr %0, i64 20
  %35 = load i32, ptr %34, align 4, !tbaa !24
  %36 = load ptr, ptr %1, align 8, !tbaa !3
  %37 = getelementptr inbounds nuw i8, ptr %36, i64 144
  %38 = load ptr, ptr %37, align 8
  %39 = tail call noundef i32 %38(ptr noundef nonnull align 8 dereferenceable(16) %1, i8 noundef signext %33, i32 noundef %35, i32 noundef 0)
  br label %40

40:                                               ; preds = %25, %14
  %.sink = phi i32 [ %39, %25 ], [ %24, %14 ]
  %41 = getelementptr inbounds nuw i8, ptr %0, i64 12
  store i32 %.sink, ptr %41, align 4, !tbaa !21
  ret void
}